; ModuleID = '20/1323.c'
source_filename = "20/1323.c"
target datalayout = "e-m:e-p270:32:32-p271:32:32-p272:64:64-i64:64-f80:128-n8:16:32:64-S128"
target triple = "x86_64-pc-linux-gnu"

@.str = private unnamed_addr constant [5 x i8] c"%s%s\00", align 1
@.str.1 = private unnamed_addr constant [3 x i8] c"%c\00", align 1
@.str.2 = private unnamed_addr constant [7 x i8] c"%c%c%c\00", align 1
@.str.3 = private unnamed_addr constant [2 x i8] c"\0A\00", align 1

; Function Attrs: noinline nounwind uwtable
define dso_local void @main() #0 {
  %1 = alloca [15 x i8], align 1
  %2 = alloca [4 x i8], align 1
  %3 = alloca [15 x i8], align 1
  %4 = alloca [15 x i8], align 1
  %5 = alloca i32, align 4
  %6 = alloca i32, align 4
  %7 = alloca i32, align 4
  %8 = alloca i32, align 4
  %9 = alloca i32, align 4
  %10 = bitcast [15 x i8]* %1 to i8*
  call void @llvm.memset.p0i8.i64(i8* align 1 %10, i8 0, i64 15, i1 false)
  %11 = bitcast [4 x i8]* %2 to i8*
  call void @llvm.memset.p0i8.i64(i8* align 1 %11, i8 0, i64 4, i1 false)
  %12 = bitcast [15 x i8]* %3 to i8*
  call void @llvm.memset.p0i8.i64(i8* align 1 %12, i8 0, i64 15, i1 false)
  %13 = bitcast [15 x i8]* %4 to i8*
  call void @llvm.memset.p0i8.i64(i8* align 1 %13, i8 0, i64 15, i1 false)
  store i32 0, i32* %8, align 4
  store i32 0, i32* %9, align 4
  br label %14

14:                                               ; preds = %118, %0
  %15 = getelementptr inbounds [15 x i8], [15 x i8]* %1, i64 0, i64 0
  %16 = getelementptr inbounds [4 x i8], [4 x i8]* %2, i64 0, i64 0
  %17 = call i32 (i8*, ...) @__isoc99_scanf(i8* getelementptr inbounds ([5 x i8], [5 x i8]* @.str, i64 0, i64 0), i8* %15, i8* %16)
  %18 = icmp ne i32 %17, -1
  br i1 %18, label %19, label %120

19:                                               ; preds = %14
  %20 = getelementptr inbounds [15 x i8], [15 x i8]* %1, i64 0, i64 0
  %21 = call i64 @strlen(i8* %20) #4
  %22 = trunc i64 %21 to i32
  store i32 %22, i32* %7, align 4
  store i32 0, i32* %5, align 4
  br label %23

23:                                               ; preds = %35, %19
  %24 = load i32, i32* %5, align 4
  %25 = load i32, i32* %7, align 4
  %26 = icmp slt i32 %24, %25
  br i1 %26, label %27, label %38

27:                                               ; preds = %23
  %28 = load i32, i32* %5, align 4
  %29 = sext i32 %28 to i64
  %30 = getelementptr inbounds [15 x i8], [15 x i8]* %1, i64 0, i64 %29
  %31 = load i8, i8* %30, align 1
  %32 = load i32, i32* %5, align 4
  %33 = sext i32 %32 to i64
  %34 = getelementptr inbounds [15 x i8], [15 x i8]* %4, i64 0, i64 %33
  store i8 %31, i8* %34, align 1
  br label %35

35:                                               ; preds = %27
  %36 = load i32, i32* %5, align 4
  %37 = add nsw i32 %36, 1
  store i32 %37, i32* %5, align 4
  br label %23

38:                                               ; preds = %23
  store i32 0, i32* %5, align 4
  br label %39

39:                                               ; preds = %61, %38
  %40 = load i32, i32* %5, align 4
  %41 = load i32, i32* %7, align 4
  %42 = sub nsw i32 %41, 1
  %43 = icmp slt i32 %40, %42
  br i1 %43, label %44, label %64

44:                                               ; preds = %39
  %45 = load i32, i32* %8, align 4
  %46 = sext i32 %45 to i64
  %47 = getelementptr inbounds [15 x i8], [15 x i8]* %1, i64 0, i64 %46
  %48 = load i8, i8* %47, align 1
  %49 = sext i8 %48 to i32
  %50 = load i32, i32* %5, align 4
  %51 = add nsw i32 %50, 1
  %52 = sext i32 %51 to i64
  %53 = getelementptr inbounds [15 x i8], [15 x i8]* %1, i64 0, i64 %52
  %54 = load i8, i8* %53, align 1
  %55 = sext i8 %54 to i32
  %56 = icmp slt i32 %49, %55
  br i1 %56, label %57, label %60

57:                                               ; preds = %44
  %58 = load i32, i32* %5, align 4
  %59 = add nsw i32 %58, 1
  store i32 %59, i32* %8, align 4
  br label %60

60:                                               ; preds = %57, %44
  br label %61

61:                                               ; preds = %60
  %62 = load i32, i32* %5, align 4
  %63 = add nsw i32 %62, 1
  store i32 %63, i32* %5, align 4
  br label %39

64:                                               ; preds = %39
  store i32 0, i32* %5, align 4
  br label %65

65:                                               ; preds = %82, %64
  %66 = load i32, i32* %5, align 4
  %67 = load i32, i32* %8, align 4
  %68 = icmp sle i32 %66, %67
  br i1 %68, label %69, label %85

69:                                               ; preds = %65
  %70 = load i32, i32* %5, align 4
  %71 = sext i32 %70 to i64
  %72 = getelementptr inbounds [15 x i8], [15 x i8]* %4, i64 0, i64 %71
  %73 = load i8, i8* %72, align 1
  %74 = sext i8 %73 to i32
  %75 = call i32 (i8*, ...) @printf(i8* getelementptr inbounds ([3 x i8], [3 x i8]* @.str.1, i64 0, i64 0), i32 %74)
  %76 = load i32, i32* %5, align 4
  %77 = sext i32 %76 to i64
  %78 = getelementptr inbounds [15 x i8], [15 x i8]* %1, i64 0, i64 %77
  store i8 0, i8* %78, align 1
  %79 = load i32, i32* %5, align 4
  %80 = sext i32 %79 to i64
  %81 = getelementptr inbounds [15 x i8], [15 x i8]* %4, i64 0, i64 %80
  store i8 0, i8* %81, align 1
  br label %82

82:                                               ; preds = %69
  %83 = load i32, i32* %5, align 4
  %84 = add nsw i32 %83, 1
  store i32 %84, i32* %5, align 4
  br label %65

85:                                               ; preds = %65
  %86 = getelementptr inbounds [4 x i8], [4 x i8]* %2, i64 0, i64 0
  %87 = load i8, i8* %86, align 1
  %88 = sext i8 %87 to i32
  %89 = getelementptr inbounds [4 x i8], [4 x i8]* %2, i64 0, i64 1
  %90 = load i8, i8* %89, align 1
  %91 = sext i8 %90 to i32
  %92 = getelementptr inbounds [4 x i8], [4 x i8]* %2, i64 0, i64 2
  %93 = load i8, i8* %92, align 1
  %94 = sext i8 %93 to i32
  %95 = call i32 (i8*, ...) @printf(i8* getelementptr inbounds ([7 x i8], [7 x i8]* @.str.2, i64 0, i64 0), i32 %88, i32 %91, i32 %94)
  %96 = load i32, i32* %8, align 4
  %97 = add nsw i32 %96, 1
  store i32 %97, i32* %6, align 4
  br label %98

98:                                               ; preds = %115, %85
  %99 = load i32, i32* %6, align 4
  %100 = load i32, i32* %7, align 4
  %101 = icmp slt i32 %99, %100
  br i1 %101, label %102, label %118

102:                                              ; preds = %98
  %103 = load i32, i32* %6, align 4
  %104 = sext i32 %103 to i64
  %105 = getelementptr inbounds [15 x i8], [15 x i8]* %4, i64 0, i64 %104
  %106 = load i8, i8* %105, align 1
  %107 = sext i8 %106 to i32
  %108 = call i32 (i8*, ...) @printf(i8* getelementptr inbounds ([3 x i8], [3 x i8]* @.str.1, i64 0, i64 0), i32 %107)
  %109 = load i32, i32* %6, align 4
  %110 = sext i32 %109 to i64
  %111 = getelementptr inbounds [15 x i8], [15 x i8]* %1, i64 0, i64 %110
  store i8 0, i8* %111, align 1
  %112 = load i32, i32* %6, align 4
  %113 = sext i32 %112 to i64
  %114 = getelementptr inbounds [15 x i8], [15 x i8]* %4, i64 0, i64 %113
  store i8 0, i8* %114, align 1
  br label %115

115:                                              ; preds = %102
  %116 = load i32, i32* %6, align 4
  %117 = add nsw i32 %116, 1
  store i32 %117, i32* %6, align 4
  br label %98

118:                                              ; preds = %98
  %119 = call i32 (i8*, ...) @printf(i8* getelementptr inbounds ([2 x i8], [2 x i8]* @.str.3, i64 0, i64 0))
  store i32 0, i32* %8, align 4
  store i32 0, i32* %9, align 4
  br label %14

120:                                              ; preds = %14
  ret void
}

; Function Attrs: argmemonly nounwind willreturn
declare void @llvm.memset.p0i8.i64(i8* nocapture writeonly, i8, i64, i1 immarg) #1

declare dso_local i32 @__isoc99_scanf(i8*, ...) #2

; Function Attrs: nounwind readonly
declare dso_local i64 @strlen(i8*) #3

declare dso_local i32 @printf(i8*, ...) #2


!llvm.module.flags = !{!0}
!llvm.ident = !{!1}

!0 = !{i32 1, !"wchar_size", i32 4}
!1 = !{!"clang version 10.0.0-4ubuntu1 "}
